target datalayout = "e-m:e-p270:32:32-p271:32:32-p272:64:64-i64:64-i128:128-f80:128-n8:16:32:64-S128"
target triple = "x86_64-pc-linux-gnu"

%struct.darktable_t = type { %struct.dt_codepath_t, i32, i32, ptr, ptr, ptr, ptr, ptr, ptr, ptr, ptr, ptr, ptr, ptr, ptr, ptr, ptr, ptr, ptr, ptr, ptr, ptr, ptr, ptr, ptr, ptr, ptr, ptr, ptr, ptr, [64 x %struct.dt_pthread_mutex_t], %struct.dt_pthread_mutex_t, %struct.dt_pthread_mutex_t, %struct.dt_pthread_mutex_t, %struct.dt_pthread_mutex_t, %struct.dt_pthread_mutex_t, ptr, ptr, ptr, ptr, ptr, ptr, ptr, ptr, ptr, ptr, ptr, ptr, ptr, %struct.dt_lua_state_t, ptr, double, ptr, i32, [47 x i32], i32, i32, ptr, ptr, %struct.dt_sys_resources_t, %struct.dt_backthumb_t, %struct.dt_gimp_t }
%struct.dt_codepath_t = type { i8, [3 x i8] }
%struct.dt_pthread_mutex_t = type { %union.pthread_mutex_t }
%union.pthread_mutex_t = type { %struct.__pthread_mutex_s }
%struct.__pthread_mutex_s = type { i32, i32, i32, i32, i32, i16, i16, %struct.__pthread_internal_list }
%struct.__pthread_internal_list = type { ptr, ptr }
%struct.dt_lua_state_t = type { i32 }
%struct.dt_sys_resources_t = type { i64, i64, ptr, ptr, i32 }
%struct.dt_backthumb_t = type { double, double, i32, i32, i32, i32 }
%struct.dt_gimp_t = type { i32, ptr, ptr, i32, i32 }
%struct.dt_lib_module_t = type { %struct.dt_action_t, ptr, ptr, ptr, ptr, ptr, ptr, ptr, ptr, ptr, ptr, ptr, ptr, ptr, ptr, ptr, ptr, ptr, ptr, ptr, ptr, ptr, ptr, ptr, ptr, ptr, ptr, ptr, ptr, ptr, ptr, [128 x i8], ptr, ptr, i32, ptr, ptr, ptr, i32 }
%struct.dt_action_t = type { i32, ptr, ptr, ptr, ptr, ptr }
%struct.dt_lib_tagging_t = type { [1024 x i8], ptr, ptr, ptr, ptr, ptr, ptr, ptr, ptr, ptr, ptr, ptr, ptr, ptr, ptr, ptr, ptr, ptr, ptr, ptr, ptr, ptr, i32, i32, i32, i32, i32, ptr, ptr, %struct.anon, i32 }
%struct.anon = type { ptr, ptr, ptr, i32, i32, i32, i32, i32 }
%struct._GList = type { ptr, ptr, ptr }

@.str.5 = private unnamed_addr constant [1 x i8] zeroinitializer, align 1
@darktable = external global %struct.darktable_t, align 8

; Function Attrs: nounwind uwtable
define internal void @_new_button_clicked(ptr noundef %0, ptr noundef %1) #0 {
  %3 = alloca ptr, align 8
  %4 = alloca ptr, align 8
  %5 = alloca ptr, align 8
  %6 = alloca ptr, align 8
  %7 = alloca i32, align 4
  %8 = alloca ptr, align 8
  %9 = alloca ptr, align 8
  %10 = alloca i32, align 4
  %11 = alloca ptr, align 8
  store ptr %0, ptr %3, align 8, !tbaa !154
  store ptr %1, ptr %4, align 8, !tbaa !6
  call void @llvm.lifetime.start.p0(i64 8, ptr %5) #11
  %12 = load ptr, ptr %4, align 8, !tbaa !6
  %13 = getelementptr inbounds nuw %struct.dt_lib_module_t, ptr %12, i32 0, i32 30
  %14 = load ptr, ptr %13, align 8, !tbaa !11
  store ptr %14, ptr %5, align 8, !tbaa !19
  call void @llvm.lifetime.start.p0(i64 8, ptr %6) #11
  %15 = load ptr, ptr %5, align 8, !tbaa !19
  %16 = getelementptr inbounds nuw %struct.dt_lib_tagging_t, ptr %15, i32 0, i32 1
  %17 = load ptr, ptr %16, align 8, !tbaa !103
  %18 = call ptr @gtk_entry_get_text(ptr noundef %17)
  store ptr %18, ptr %6, align 8, !tbaa !49
  %19 = load ptr, ptr %6, align 8, !tbaa !49
  %20 = icmp ne ptr %19, null
  br i1 %20, label %21, label %27

21:                                               ; preds = %2
  %22 = load ptr, ptr %6, align 8, !tbaa !49
  %23 = getelementptr inbounds i8, ptr %22, i64 0
  %24 = load i8, ptr %23, align 1, !tbaa !52
  %25 = sext i8 %24 to i32
  %26 = icmp eq i32 %25, 0
  br i1 %26, label %27, label %28

27:                                               ; preds = %21, %2
  store i32 1, ptr %7, align 4
  br label %115

28:                                               ; preds = %21
  call void @llvm.lifetime.start.p0(i64 8, ptr %8) #11
  %29 = call ptr @dt_act_on_get_images(i32 noundef 0, i32 noundef 1, i32 noundef 0)
  store ptr %29, ptr %8, align 8, !tbaa !32
  %30 = load ptr, ptr %8, align 8, !tbaa !32
  %31 = icmp ne ptr %30, null
  br i1 %31, label %32, label %72

32:                                               ; preds = %28
  %33 = load ptr, ptr %8, align 8, !tbaa !32
  %34 = getelementptr inbounds nuw %struct._GList, ptr %33, i32 0, i32 1
  %35 = load ptr, ptr %34, align 8, !tbaa !58
  %36 = icmp ne ptr %35, null
  br i1 %36, label %72, label %37

37:                                               ; preds = %32
  call void @llvm.lifetime.start.p0(i64 8, ptr %9) #11
  %38 = load ptr, ptr getelementptr inbounds nuw (%struct.darktable_t, ptr @darktable, i32 0, i32 22), align 8, !tbaa !176
  %39 = call ptr @dt_selection_get_list(ptr noundef %38, i32 noundef 0, i32 noundef 0)
  store ptr %39, ptr %9, align 8, !tbaa !32
  %40 = load ptr, ptr %9, align 8, !tbaa !32
  %41 = icmp ne ptr %40, null
  br i1 %41, label %42, label %67

42:                                               ; preds = %37
  %43 = load ptr, ptr %9, align 8, !tbaa !32
  %44 = getelementptr inbounds nuw %struct._GList, ptr %43, i32 0, i32 1
  %45 = load ptr, ptr %44, align 8, !tbaa !58
  %46 = icmp ne ptr %45, null
  br i1 %46, label %64, label %47

47:                                               ; preds = %42
  %48 = load ptr, ptr %9, align 8, !tbaa !32
  %49 = getelementptr inbounds nuw %struct._GList, ptr %48, i32 0, i32 1
  %50 = load ptr, ptr %49, align 8, !tbaa !58
  %51 = icmp ne ptr %50, null
  br i1 %51, label %67, label %52

52:                                               ; preds = %47
  %53 = load ptr, ptr %9, align 8, !tbaa !32
  %54 = getelementptr inbounds nuw %struct._GList, ptr %53, i32 0, i32 0
  %55 = load ptr, ptr %54, align 8, !tbaa !45
  %56 = ptrtoint ptr %55 to i64
  %57 = trunc i64 %56 to i32
  %58 = load ptr, ptr %8, align 8, !tbaa !32
  %59 = getelementptr inbounds nuw %struct._GList, ptr %58, i32 0, i32 0
  %60 = load ptr, ptr %59, align 8, !tbaa !45
  %61 = ptrtoint ptr %60 to i64
  %62 = trunc i64 %61 to i32
  %63 = icmp ne i32 %57, %62
  br i1 %63, label %64, label %67

64:                                               ; preds = %52, %42
  %65 = load ptr, ptr %9, align 8, !tbaa !32
  call void @g_list_free(ptr noundef %65)
  %66 = load ptr, ptr %8, align 8, !tbaa !32
  call void @g_list_free(ptr noundef %66)
  store i32 1, ptr %7, align 4
  br label %69

67:                                               ; preds = %52, %47, %37
  %68 = load ptr, ptr %9, align 8, !tbaa !32
  call void @g_list_free(ptr noundef %68)
  store i32 0, ptr %7, align 4
  br label %69

69:                                               ; preds = %67, %64
  call void @llvm.lifetime.end.p0(i64 8, ptr %9) #11
  %70 = load i32, ptr %7, align 4
  switch i32 %70, label %114 [
    i32 0, label %71
  ]

71:                                               ; preds = %69
  br label %72

72:                                               ; preds = %71, %32, %28
  call void @llvm.lifetime.start.p0(i64 4, ptr %10) #11
  %73 = load ptr, ptr %6, align 8, !tbaa !49
  %74 = load ptr, ptr %8, align 8, !tbaa !32
  %75 = call i32 @dt_tag_attach_string_list(ptr noundef %73, ptr noundef %74, i32 noundef 1)
  store i32 %75, ptr %10, align 4, !tbaa !31
  %76 = load i32, ptr %10, align 4, !tbaa !31
  %77 = icmp ne i32 %76, 0
  br i1 %77, label %78, label %80

78:                                               ; preds = %72
  %79 = load ptr, ptr %8, align 8, !tbaa !32
  call void @dt_image_synch_xmps(ptr noundef %79)
  br label %80

80:                                               ; preds = %78, %72
  %81 = load ptr, ptr %8, align 8, !tbaa !32
  call void @g_list_free(ptr noundef %81)
  %82 = load ptr, ptr %6, align 8, !tbaa !49
  %83 = load ptr, ptr %5, align 8, !tbaa !19
  call void @_save_last_tag_used(ptr noundef %82, ptr noundef %83)
  %84 = load ptr, ptr %5, align 8, !tbaa !19
  %85 = getelementptr inbounds nuw %struct.dt_lib_tagging_t, ptr %84, i32 0, i32 1
  %86 = load ptr, ptr %85, align 8, !tbaa !103
  call void @gtk_entry_set_text(ptr noundef %86, ptr noundef @.str.5)
  %87 = load ptr, ptr %4, align 8, !tbaa !6
  call void @_init_treeview(ptr noundef %87, i32 noundef 0)
  %88 = load ptr, ptr %4, align 8, !tbaa !6
  call void @_init_treeview(ptr noundef %88, i32 noundef 1)
  call void @llvm.lifetime.start.p0(i64 8, ptr %11) #11
  %89 = load ptr, ptr %5, align 8, !tbaa !19
  %90 = getelementptr inbounds nuw %struct.dt_lib_tagging_t, ptr %89, i32 0, i32 28
  %91 = load ptr, ptr %90, align 8, !tbaa !104
  %92 = call ptr @strrchr(ptr noundef %91, i32 noundef 44) #13
  store ptr %92, ptr %11, align 8, !tbaa !49
  %93 = load i32, ptr %10, align 4, !tbaa !31
  %94 = icmp ne i32 %93, 0
  br i1 %94, label %95, label %97

95:                                               ; preds = %80
  %96 = load ptr, ptr %4, align 8, !tbaa !6
  call void @_raise_signal_tag_changed(ptr noundef %96)
  br label %97

97:                                               ; preds = %95, %80
  %98 = load ptr, ptr %5, align 8, !tbaa !19
  %99 = getelementptr inbounds nuw %struct.dt_lib_tagging_t, ptr %98, i32 0, i32 4
  %100 = load ptr, ptr %99, align 8, !tbaa !40
  %101 = call i64 @gtk_tree_view_get_type() #12
  %102 = call ptr @g_type_check_instance_cast(ptr noundef %100, i64 noundef %101)
  %103 = load ptr, ptr %11, align 8, !tbaa !49
  %104 = icmp ne ptr %103, null
  br i1 %104, label %105, label %108

105:                                              ; preds = %97
  %106 = load ptr, ptr %11, align 8, !tbaa !49
  %107 = getelementptr inbounds i8, ptr %106, i64 1
  br label %112

108:                                              ; preds = %97
  %109 = load ptr, ptr %5, align 8, !tbaa !19
  %110 = getelementptr inbounds nuw %struct.dt_lib_tagging_t, ptr %109, i32 0, i32 28
  %111 = load ptr, ptr %110, align 8, !tbaa !104
  br label %112

112:                                              ; preds = %108, %105
  %113 = phi ptr [ %107, %105 ], [ %111, %108 ]
  call void @_show_tag_on_view(ptr noundef %102, ptr noundef %113, i32 noundef 0, i32 noundef 1)
  call void @llvm.lifetime.end.p0(i64 8, ptr %11) #11
  call void @llvm.lifetime.end.p0(i64 4, ptr %10) #11
  store i32 0, ptr %7, align 4
  br label %114

114:                                              ; preds = %112, %69
  call void @llvm.lifetime.end.p0(i64 8, ptr %8) #11
  br label %115

115:                                              ; preds = %114, %27
  call void @llvm.lifetime.end.p0(i64 8, ptr %6) #11
  call void @llvm.lifetime.end.p0(i64 8, ptr %5) #11
  %116 = load i32, ptr %7, align 4
  switch i32 %116, label %118 [
    i32 0, label %117
    i32 1, label %117
  ]

117:                                              ; preds = %115, %115
  ret void

118:                                              ; preds = %115
  unreachable
}