; Function Attrs: nounwind uwtable
define internal void @_new_button_clicked(ptr readnone captures(none) %0, ptr noundef %1) #1 {
  %3 = getelementptr inbounds nuw i8, ptr %1, i64 280
  %4 = load ptr, ptr %3, align 8, !tbaa !6
  %5 = getelementptr inbounds nuw i8, ptr %4, i64 1024
  %6 = load ptr, ptr %5, align 8, !tbaa !95
  %7 = tail call ptr @gtk_entry_get_text(ptr noundef %6) #16
  %.not = icmp eq ptr %7, null
  br i1 %.not, label %50, label %8

8:                                                ; preds = %2
  %9 = load i8, ptr %7, align 1, !tbaa !40
  %10 = icmp eq i8 %9, 0
  br i1 %10, label %50, label %11

11:                                               ; preds = %8
  %12 = tail call ptr @dt_act_on_get_images(i32 noundef 0, i32 noundef 1, i32 noundef 0) #16
  %.not35 = icmp eq ptr %12, null
  br i1 %.not35, label %30, label %13

13:                                               ; preds = %11
  %14 = getelementptr inbounds nuw i8, ptr %12, i64 8
  %15 = load ptr, ptr %14, align 8, !tbaa !53
  %.not36 = icmp eq ptr %15, null
  br i1 %.not36, label %16, label %30

16:                                               ; preds = %13
  %17 = load ptr, ptr getelementptr inbounds nuw (i8, ptr @darktable, i64 168), align 8, !tbaa !138
  %18 = tail call ptr @dt_selection_get_list(ptr noundef %17, i32 noundef 0, i32 noundef 0) #16
  %.not37 = icmp eq ptr %18, null
  br i1 %.not37, label %29, label %19

19:                                               ; preds = %16
  %20 = getelementptr inbounds nuw i8, ptr %18, i64 8
  %21 = load ptr, ptr %20, align 8, !tbaa !53
  %.not38 = icmp eq ptr %21, null
  br i1 %.not38, label %22, label %.critedge

22:                                               ; preds = %19
  %23 = load ptr, ptr %18, align 8, !tbaa !41
  %24 = ptrtoint ptr %23 to i64
  %25 = trunc i64 %24 to i32
  %26 = load ptr, ptr %12, align 8, !tbaa !41
  %27 = ptrtoint ptr %26 to i64
  %28 = trunc i64 %27 to i32
  %.not39 = icmp eq i32 %25, %28
  br i1 %.not39, label %29, label %.critedge

.critedge:                                        ; preds = %22, %19
  tail call void @g_list_free(ptr noundef nonnull %18) #16
  tail call void @g_list_free(ptr noundef nonnull %12) #16
  br label %50

29:                                               ; preds = %22, %16
  tail call void @g_list_free(ptr noundef %18) #16
  br label %30

30:                                               ; preds = %29, %13, %11
  %31 = tail call i32 @dt_tag_attach_string_list(ptr noundef nonnull %7, ptr noundef %12, i32 noundef 1) #16
  %.not40 = icmp eq i32 %31, 0
  br i1 %.not40, label %33, label %32

32:                                               ; preds = %30
  tail call void @dt_image_synch_xmps(ptr noundef %12) #16
  br label %33

33:                                               ; preds = %32, %30
  tail call void @g_list_free(ptr noundef %12) #16
  tail call fastcc void @_save_last_tag_used(ptr noundef nonnull %7, ptr noundef nonnull %4)
  %34 = load ptr, ptr %5, align 8, !tbaa !95
  tail call void @gtk_entry_set_text(ptr noundef %34, ptr noundef nonnull @.str.5) #16
  tail call fastcc void @_init_treeview(ptr noundef nonnull %1, i32 noundef 0)
  tail call fastcc void @_init_treeview(ptr noundef nonnull %1, i32 noundef 1)
  %35 = getelementptr inbounds nuw i8, ptr %4, i64 1224
  %36 = load ptr, ptr %35, align 8, !tbaa !139
  %37 = tail call ptr @strrchr(ptr noundef nonnull dereferenceable(1) %36, i32 noundef 44) #18
  br i1 %.not40, label %39, label %38

38:                                               ; preds = %33
  tail call fastcc void @_raise_signal_tag_changed(ptr noundef nonnull %1)
  br label %39

39:                                               ; preds = %38, %33
  %40 = getelementptr inbounds nuw i8, ptr %4, i64 1048
  %41 = load ptr, ptr %40, align 8, !tbaa !27
  %42 = tail call i64 @gtk_tree_view_get_type() #17
  %43 = tail call ptr @g_type_check_instance_cast(ptr noundef %41, i64 noundef %42) #16
  %.not41 = icmp eq ptr %37, null
  br i1 %.not41, label %46, label %44

44:                                               ; preds = %39
  %45 = getelementptr inbounds nuw i8, ptr %37, i64 1
  br label %48

46:                                               ; preds = %39
  %47 = load ptr, ptr %35, align 8, !tbaa !139
  br label %48

48:                                               ; preds = %46, %44
  %49 = phi ptr [ %45, %44 ], [ %47, %46 ]
  tail call fastcc void @_show_tag_on_view(ptr noundef %43, ptr noundef %49, i32 noundef 0, i32 noundef 1)
  br label %50

50:                                               ; preds = %48, %.critedge, %2, %8
  ret void
}